target datalayout = "e-m:e-p270:32:32-p271:32:32-p272:64:64-i64:64-i128:128-f80:128-n8:16:32:64-S128"
target triple = "x86_64-pc-linux-gnu"

%struct.sockaddr = type { i16, [14 x i8] }
%struct.sockaddr_in = type { i16, i16, %struct.in_addr, [8 x i8] }
%struct.in_addr = type { i32 }
%struct.sockaddr_in6 = type { i16, i16, i32, %struct.in6_addr, i32 }
%struct.in6_addr = type { %union.anon.2 }
%union.anon.2 = type { [4 x i32] }
%struct.sockaddr_un = type { i16, [108 x i8] }

@.str = private unnamed_addr constant [3 x i8] c"%s\00", align 1

; Function Attrs: inlinehint nounwind uwtable
define internal zeroext i16 @__bswap_16(i16 noundef zeroext %0) #6 {
  %2 = alloca i16, align 2
  store i16 %0, ptr %2, align 2, !tbaa !120
  %3 = load i16, ptr %2, align 2, !tbaa !120
  %4 = zext i16 %3 to i32
  %5 = ashr i32 %4, 8
  %6 = and i32 %5, 255
  %7 = load i16, ptr %2, align 2, !tbaa !120
  %8 = zext i16 %7 to i32
  %9 = and i32 %8, 255
  %10 = shl i32 %9, 8
  %11 = or i32 %6, %10
  %12 = trunc i32 %11 to i16
  ret i16 %12
}

; Function Attrs: nounwind uwtable
define dso_local zeroext i1 @Curl_addr2string(ptr noundef %0, i32 noundef %1, ptr noundef %2, ptr noundef %3) #0 {
  %5 = alloca i1, align 1
  %6 = alloca ptr, align 8
  %7 = alloca i32, align 4
  %8 = alloca ptr, align 8
  %9 = alloca ptr, align 8
  %10 = alloca ptr, align 8
  %11 = alloca ptr, align 8
  %12 = alloca ptr, align 8
  %13 = alloca i16, align 2
  %14 = alloca i32, align 4
  %15 = alloca i16, align 2
  store ptr %0, ptr %6, align 8, !tbaa !104
  store i32 %1, ptr %7, align 4, !tbaa !86
  store ptr %2, ptr %8, align 8, !tbaa !106
  store ptr %3, ptr %9, align 8, !tbaa !107
  call void @llvm.lifetime.start.p0(i64 8, ptr %10) #8
  store ptr null, ptr %10, align 8, !tbaa !109
  call void @llvm.lifetime.start.p0(i64 8, ptr %11) #8
  store ptr null, ptr %11, align 8, !tbaa !111
  call void @llvm.lifetime.start.p0(i64 8, ptr %12) #8
  store ptr null, ptr %12, align 8, !tbaa !113
  %16 = load ptr, ptr %6, align 8, !tbaa !104
  %17 = getelementptr inbounds nuw %struct.sockaddr, ptr %16, i32 0, i32 0
  %18 = load i16, ptr %17, align 2, !tbaa !115
  %19 = zext i16 %18 to i32
  switch i32 %19, label %75 [
    i32 2, label %20
    i32 10, label %40
    i32 1, label %60
  ]

20:                                               ; preds = %4
  %21 = load ptr, ptr %6, align 8, !tbaa !104
  store ptr %21, ptr %10, align 8, !tbaa !109
  %22 = load ptr, ptr %6, align 8, !tbaa !104
  %23 = getelementptr inbounds nuw %struct.sockaddr, ptr %22, i32 0, i32 0
  %24 = load i16, ptr %23, align 2, !tbaa !115
  %25 = zext i16 %24 to i32
  %26 = load ptr, ptr %10, align 8, !tbaa !109
  %27 = getelementptr inbounds nuw %struct.sockaddr_in, ptr %26, i32 0, i32 2
  %28 = load ptr, ptr %8, align 8, !tbaa !106
  %29 = call ptr @inet_ntop(i32 noundef %25, ptr noundef %27, ptr noundef %28, i32 noundef 46) #8
  %30 = icmp ne ptr %29, null
  br i1 %30, label %31, label %39

31:                                               ; preds = %20
  call void @llvm.lifetime.start.p0(i64 2, ptr %13) #8
  %32 = load ptr, ptr %10, align 8, !tbaa !109
  %33 = getelementptr inbounds nuw %struct.sockaddr_in, ptr %32, i32 0, i32 1
  %34 = load i16, ptr %33, align 2, !tbaa !117
  %35 = call zeroext i16 @__bswap_16(i16 noundef zeroext %34)
  store i16 %35, ptr %13, align 2, !tbaa !120
  %36 = load i16, ptr %13, align 2, !tbaa !120
  %37 = zext i16 %36 to i32
  %38 = load ptr, ptr %9, align 8, !tbaa !107
  store i32 %37, ptr %38, align 4, !tbaa !86
  store i1 true, ptr %5, align 1
  store i32 1, ptr %14, align 4
  call void @llvm.lifetime.end.p0(i64 2, ptr %13) #8
  br label %81

39:                                               ; preds = %20
  br label %76

40:                                               ; preds = %4
  %41 = load ptr, ptr %6, align 8, !tbaa !104
  store ptr %41, ptr %11, align 8, !tbaa !111
  %42 = load ptr, ptr %6, align 8, !tbaa !104
  %43 = getelementptr inbounds nuw %struct.sockaddr, ptr %42, i32 0, i32 0
  %44 = load i16, ptr %43, align 2, !tbaa !115
  %45 = zext i16 %44 to i32
  %46 = load ptr, ptr %11, align 8, !tbaa !111
  %47 = getelementptr inbounds nuw %struct.sockaddr_in6, ptr %46, i32 0, i32 3
  %48 = load ptr, ptr %8, align 8, !tbaa !106
  %49 = call ptr @inet_ntop(i32 noundef %45, ptr noundef %47, ptr noundef %48, i32 noundef 46) #8
  %50 = icmp ne ptr %49, null
  br i1 %50, label %51, label %59

51:                                               ; preds = %40
  call void @llvm.lifetime.start.p0(i64 2, ptr %15) #8
  %52 = load ptr, ptr %11, align 8, !tbaa !111
  %53 = getelementptr inbounds nuw %struct.sockaddr_in6, ptr %52, i32 0, i32 1
  %54 = load i16, ptr %53, align 2, !tbaa !121
  %55 = call zeroext i16 @__bswap_16(i16 noundef zeroext %54)
  store i16 %55, ptr %15, align 2, !tbaa !120
  %56 = load i16, ptr %15, align 2, !tbaa !120
  %57 = zext i16 %56 to i32
  %58 = load ptr, ptr %9, align 8, !tbaa !107
  store i32 %57, ptr %58, align 4, !tbaa !86
  store i1 true, ptr %5, align 1
  store i32 1, ptr %14, align 4
  call void @llvm.lifetime.end.p0(i64 2, ptr %15) #8
  br label %81

59:                                               ; preds = %40
  br label %76

60:                                               ; preds = %4
  %61 = load i32, ptr %7, align 4, !tbaa !86
  %62 = icmp ugt i32 %61, 2
  br i1 %62, label %63, label %70

63:                                               ; preds = %60
  %64 = load ptr, ptr %6, align 8, !tbaa !104
  store ptr %64, ptr %12, align 8, !tbaa !113
  %65 = load ptr, ptr %8, align 8, !tbaa !106
  %66 = load ptr, ptr %12, align 8, !tbaa !113
  %67 = getelementptr inbounds nuw %struct.sockaddr_un, ptr %66, i32 0, i32 1
  %68 = getelementptr inbounds [108 x i8], ptr %67, i64 0, i64 0
  %69 = call i32 (ptr, i64, ptr, ...) @curl_msnprintf(ptr noundef %65, i64 noundef 46, ptr noundef @.str, ptr noundef %68)
  br label %73

70:                                               ; preds = %60
  %71 = load ptr, ptr %8, align 8, !tbaa !106
  %72 = getelementptr inbounds i8, ptr %71, i64 0
  store i8 0, ptr %72, align 1, !tbaa !124
  br label %73

73:                                               ; preds = %70, %63
  %74 = load ptr, ptr %9, align 8, !tbaa !107
  store i32 0, ptr %74, align 4, !tbaa !86
  store i1 true, ptr %5, align 1
  store i32 1, ptr %14, align 4
  br label %81

75:                                               ; preds = %4
  br label %76

76:                                               ; preds = %75, %59, %39
  %77 = load ptr, ptr %8, align 8, !tbaa !106
  %78 = getelementptr inbounds i8, ptr %77, i64 0
  store i8 0, ptr %78, align 1, !tbaa !124
  %79 = load ptr, ptr %9, align 8, !tbaa !107
  store i32 0, ptr %79, align 4, !tbaa !86
  %80 = call ptr @__errno_location() #9
  store i32 97, ptr %80, align 4, !tbaa !86
  store i1 false, ptr %5, align 1
  store i32 1, ptr %14, align 4
  br label %81

81:                                               ; preds = %76, %73, %51, %31
  call void @llvm.lifetime.end.p0(i64 8, ptr %12) #8
  call void @llvm.lifetime.end.p0(i64 8, ptr %11) #8
  call void @llvm.lifetime.end.p0(i64 8, ptr %10) #8
  %82 = load i1, ptr %5, align 1
  ret i1 %82
}