; Function Attrs: nounwind uwtable
define dso_local noundef zeroext i1 @Curl_addr2string(ptr noundef %0, i32 noundef %1, ptr noundef %2, ptr noundef writeonly captures(none) initializes((0, 4)) %3) local_unnamed_addr #0 {
  %5 = load i16, ptr %0, align 2, !tbaa !96
  switch i16 %5, label %27 [
    i16 2, label %6
    i16 10, label %13
    i16 1, label %20
  ]

6:                                                ; preds = %4
  %7 = getelementptr inbounds nuw i8, ptr %0, i64 4
  %8 = tail call ptr @inet_ntop(i32 noundef 2, ptr noundef nonnull %7, ptr noundef %2, i32 noundef 46) #10
  %.not24 = icmp eq ptr %8, null
  br i1 %.not24, label %27, label %9

9:                                                ; preds = %6
  %10 = getelementptr inbounds nuw i8, ptr %0, i64 2
  %11 = load i16, ptr %10, align 2, !tbaa !98
  %rev.i = tail call noundef i16 @llvm.bswap.i16(i16 %11)
  %12 = zext i16 %rev.i to i32
  store i32 %12, ptr %3, align 4, !tbaa !78
  br label %29

13:                                               ; preds = %4
  %14 = getelementptr inbounds nuw i8, ptr %0, i64 8
  %15 = tail call ptr @inet_ntop(i32 noundef 10, ptr noundef nonnull %14, ptr noundef %2, i32 noundef 46) #10
  %.not = icmp eq ptr %15, null
  br i1 %.not, label %27, label %16

16:                                               ; preds = %13
  %17 = getelementptr inbounds nuw i8, ptr %0, i64 2
  %18 = load i16, ptr %17, align 2, !tbaa !101
  %rev.i25 = tail call noundef i16 @llvm.bswap.i16(i16 %18)
  %19 = zext i16 %rev.i25 to i32
  store i32 %19, ptr %3, align 4, !tbaa !78
  br label %29

20:                                               ; preds = %4
  %21 = icmp ugt i32 %1, 2
  br i1 %21, label %22, label %25

22:                                               ; preds = %20
  %23 = getelementptr inbounds nuw i8, ptr %0, i64 2
  %24 = tail call i32 (ptr, i64, ptr, ...) @curl_msnprintf(ptr noundef %2, i64 noundef 46, ptr noundef nonnull @.str, ptr noundef nonnull %23) #10
  br label %26

25:                                               ; preds = %20
  store i8 0, ptr %2, align 1, !tbaa !104
  br label %26

26:                                               ; preds = %25, %22
  store i32 0, ptr %3, align 4, !tbaa !78
  br label %29

27:                                               ; preds = %4, %13, %6
  store i8 0, ptr %2, align 1, !tbaa !104
  store i32 0, ptr %3, align 4, !tbaa !78
  %28 = tail call ptr @__errno_location() #11
  store i32 97, ptr %28, align 4, !tbaa !78
  br label %29

29:                                               ; preds = %27, %26, %16, %9
  %.0 = phi i1 [ false, %27 ], [ true, %26 ], [ true, %16 ], [ true, %9 ]
  ret i1 %.0
}